; Function Attrs: mustprogress nofree norecurse nounwind willreturn memory(readwrite, inaccessiblemem: none) uwtable
define dso_local void @_ZN4base5debug14ScopedActivity19ChangeActionAndInfoEhi(ptr nocapture noundef nonnull readonly align 8 dereferenceable(12) %this, i8 noundef zeroext %action, i32 noundef %info) local_unnamed_addr #6 align 2 personality ptr @__gxx_personality_v0 {
if.end:
  %0 = or i8 %action, -16
  %id_ = getelementptr inbounds i8, ptr %this, i64 8
  %1 = load i32, ptr %id_, align 8
  %retval.sroa.2.0.insert.ext.i = zext i32 %info to i64
  %retval.sroa.2.0.insert.shift.i = shl nuw i64 %retval.sroa.2.0.insert.ext.i, 32
  %retval.sroa.0.0.insert.ext.i = zext i32 %1 to i64
  %retval.sroa.0.0.insert.insert.i = or disjoint i64 %retval.sroa.2.0.insert.shift.i, %retval.sroa.0.0.insert.ext.i
  %2 = load ptr, ptr %this, align 8
  %tobool.not.i1 = icmp eq ptr %2, null
  br i1 %tobool.not.i1, label %_ZN4base5debug21ThreadActivityTracker14ScopedActivity17ChangeTypeAndDataENS0_8Activity4TypeERKNS0_12ActivityDataE.exit, label %if.then.i

if.then.i:                                        ; preds = %if.end
  %header_.i.i = getelementptr inbounds i8, ptr %2, i64 8
  %3 = load ptr, ptr %header_.i.i, align 8
  %current_depth.i.i = getelementptr inbounds i8, ptr %3, i64 44
  %4 = load atomic i32, ptr %current_depth.i.i acquire, align 4
  %stack_slots_.i.i = getelementptr inbounds i8, ptr %2, i64 24
  %5 = load i32, ptr %stack_slots_.i.i, align 8
  %cmp.not.i.i = icmp ugt i32 %4, %5
  br i1 %cmp.not.i.i, label %_ZN4base5debug21ThreadActivityTracker14ScopedActivity17ChangeTypeAndDataENS0_8Activity4TypeERKNS0_12ActivityDataE.exit, label %if.then5.i.i

if.then5.i.i:                                     ; preds = %if.then.i
  %stack_.i.i = getelementptr inbounds i8, ptr %2, i64 16
  %6 = load ptr, ptr %stack_.i.i, align 8
  %sub.i.i = add i32 %4, -1
  %idxprom.i.i = zext i32 %sub.i.i to i64
  %arrayidx.i.i = getelementptr inbounds %"struct.base::debug::Activity", ptr %6, i64 %idxprom.i.i
  %activity_type.i.i = getelementptr inbounds i8, ptr %arrayidx.i.i, i64 96
  store i8 %0, ptr %activity_type.i.i, align 8
  %data21.i.i = getelementptr inbounds i8, ptr %arrayidx.i.i, i64 104
  store i64 %retval.sroa.0.0.insert.insert.i, ptr %data21.i.i, align 8
  br label %_ZN4base5debug21ThreadActivityTracker14ScopedActivity17ChangeTypeAndDataENS0_8Activity4TypeERKNS0_12ActivityDataE.exit

_ZN4base5debug21ThreadActivityTracker14ScopedActivity17ChangeTypeAndDataENS0_8Activity4TypeERKNS0_12ActivityDataE.exit: ; preds = %if.end, %if.then.i, %if.then5.i.i
  ret void
}